target datalayout = "e-m:e-p270:32:32-p271:32:32-p272:64:64-i64:64-i128:128-f80:128-n8:16:32:64-S128"
target triple = "x86_64-pc-linux-gnu"

%struct._address = type { i32, i32, ptr, ptr }
%struct.lbttcp_transport_conv_data_t = type { ptr, ptr }

@lbttcp_null_address = internal constant %struct._address zeroinitializer, align 8
@proto_lbttcp = internal global i32 0, align 4

; Function Attrs: null_pointer_is_valid sspstrong uwtable
define hidden ptr @lbttcp_transport_find(ptr noundef %0, i16 noundef zeroext %1, i32 noundef %2, i32 noundef %3) #0 {
  %5 = alloca ptr, align 8
  %6 = alloca i16, align 2
  %7 = alloca i32, align 4
  %8 = alloca i32, align 4
  %9 = alloca ptr, align 8
  %10 = alloca ptr, align 8
  %11 = alloca ptr, align 8
  store ptr %0, ptr %5, align 8
  store i16 %1, ptr %6, align 2
  store i32 %2, ptr %7, align 4
  store i32 %3, ptr %8, align 4
  call void @llvm.lifetime.start.p0(i64 8, ptr %9) #9
  store ptr null, ptr %9, align 8
  call void @llvm.lifetime.start.p0(i64 8, ptr %10) #9
  store ptr null, ptr %10, align 8
  call void @llvm.lifetime.start.p0(i64 8, ptr %11) #9
  store ptr null, ptr %11, align 8
  %12 = load i32, ptr %8, align 4
  %13 = load ptr, ptr %5, align 8
  %14 = load i16, ptr %6, align 2
  %15 = zext i16 %14 to i32
  %16 = call ptr @find_conversation(i32 noundef %12, ptr noundef %13, ptr noundef @lbttcp_null_address, i32 noundef 2, i32 noundef %15, i32 noundef 0, i32 noundef 0)
  store ptr %16, ptr %10, align 8
  %17 = load ptr, ptr %10, align 8
  %18 = icmp ne ptr %17, null
  br i1 %18, label %19, label %32

19:                                               ; preds = %4
  %20 = load ptr, ptr %10, align 8
  %21 = load i32, ptr @proto_lbttcp, align 4
  %22 = call ptr @conversation_get_proto_data(ptr noundef %20, i32 noundef %21)
  store ptr %22, ptr %11, align 8
  %23 = load ptr, ptr %11, align 8
  %24 = icmp ne ptr %23, null
  br i1 %24, label %25, label %31

25:                                               ; preds = %19
  %26 = load ptr, ptr %11, align 8
  %27 = getelementptr inbounds nuw %struct.lbttcp_transport_conv_data_t, ptr %26, i32 0, i32 1
  %28 = load ptr, ptr %27, align 8
  %29 = load i32, ptr %7, align 4
  %30 = call ptr @wmem_tree_lookup32(ptr noundef %28, i32 noundef %29)
  store ptr %30, ptr %9, align 8
  br label %31

31:                                               ; preds = %25, %19
  br label %32

32:                                               ; preds = %31, %4
  %33 = load ptr, ptr %9, align 8
  call void @llvm.lifetime.end.p0(i64 8, ptr %11) #9
  call void @llvm.lifetime.end.p0(i64 8, ptr %10) #9
  call void @llvm.lifetime.end.p0(i64 8, ptr %9) #9
  ret ptr %33
}