; Function Attrs: null_pointer_is_valid sspstrong uwtable
define hidden ptr @lbttcp_transport_find(ptr noundef %0, i16 noundef zeroext %1, i32 noundef %2, i32 noundef %3) local_unnamed_addr #0 {
  %5 = zext i16 %1 to i32
  %6 = tail call ptr @find_conversation(i32 noundef %3, ptr noundef %0, ptr noundef nonnull @lbttcp_null_address, i32 noundef 2, i32 noundef %5, i32 noundef 0, i32 noundef 0)
  %.not = icmp eq ptr %6, null
  br i1 %.not, label %14, label %7

7:                                                ; preds = %4
  %8 = load i32, ptr @proto_lbttcp, align 4
  %9 = tail call ptr @conversation_get_proto_data(ptr noundef nonnull %6, i32 noundef %8)
  %.not10 = icmp eq ptr %9, null
  br i1 %.not10, label %14, label %10

10:                                               ; preds = %7
  %11 = getelementptr inbounds nuw i8, ptr %9, i64 8
  %12 = load ptr, ptr %11, align 8
  %13 = tail call ptr @wmem_tree_lookup32(ptr noundef %12, i32 noundef %2)
  br label %14

14:                                               ; preds = %7, %10, %4
  %.0 = phi ptr [ %13, %10 ], [ null, %7 ], [ null, %4 ]
  ret ptr %.0
}